target datalayout = "e-m:e-p270:32:32-p271:32:32-p272:64:64-i64:64-i128:128-f80:128-n8:16:32:64-S128"
target triple = "x86_64-pc-linux-gnu"

%struct.jpeg_decompress_struct = type { ptr, ptr, ptr, ptr, i32, i32, ptr, i32, i32, i32, i32, i32, i32, i32, double, i32, i32, i32, i32, i32, i32, i32, i32, i32, i32, i32, i32, i32, i32, i32, i32, i32, i32, ptr, i32, i32, i32, i32, i32, ptr, [4 x ptr], [4 x ptr], [4 x ptr], i32, ptr, i32, i32, [16 x i8], [16 x i8], [16 x i8], i32, i32, i8, i8, i8, i16, i16, i32, i8, i32, ptr, i32, i32, i32, i32, ptr, i32, [4 x ptr], i32, i32, i32, [10 x i32], i32, i32, i32, i32, i32, ptr, ptr, ptr, ptr, ptr, ptr, ptr, ptr, ptr, ptr, ptr }
%struct.arith_entropy_decoder = type { %struct.jpeg_entropy_decoder, i64, i64, i32, [4 x i32], [4 x i32], i32, [16 x ptr], [16 x ptr], [4 x i8] }
%struct.jpeg_entropy_decoder = type { ptr, ptr, ptr, ptr, i32 }
%struct.jpeg_error_mgr = type { ptr, ptr, ptr, ptr, ptr, i32, %union.anon, i32, i64, ptr, i32, ptr, i32, i32 }
%union.anon = type { [8 x i32], [48 x i8] }
%struct.jpeg_source_mgr = type { ptr, i64, ptr, ptr, ptr, ptr, ptr }

@jpeg_aritab = external constant [0 x i64], align 8

; Function Attrs: nounwind uwtable
define internal i32 @get_byte(ptr noundef %0) #0 {
  %2 = alloca ptr, align 8
  %3 = alloca ptr, align 8
  store ptr %0, ptr %2, align 8, !tbaa !3
  call void @llvm.lifetime.start.p0(i64 8, ptr %3) #3
  %4 = load ptr, ptr %2, align 8, !tbaa !3
  %5 = getelementptr inbounds nuw %struct.jpeg_decompress_struct, ptr %4, i32 0, i32 6
  %6 = load ptr, ptr %5, align 8, !tbaa !108
  store ptr %6, ptr %3, align 8, !tbaa !109
  %7 = load ptr, ptr %3, align 8, !tbaa !109
  %8 = getelementptr inbounds nuw %struct.jpeg_source_mgr, ptr %7, i32 0, i32 1
  %9 = load i64, ptr %8, align 8, !tbaa !110
  %10 = icmp eq i64 %9, 0
  br i1 %10, label %11, label %30

11:                                               ; preds = %1
  %12 = load ptr, ptr %3, align 8, !tbaa !109
  %13 = getelementptr inbounds nuw %struct.jpeg_source_mgr, ptr %12, i32 0, i32 3
  %14 = load ptr, ptr %13, align 8, !tbaa !112
  %15 = load ptr, ptr %2, align 8, !tbaa !3
  %16 = call i32 %14(ptr noundef %15)
  %17 = icmp ne i32 %16, 0
  br i1 %17, label %29, label %18

18:                                               ; preds = %11
  %19 = load ptr, ptr %2, align 8, !tbaa !3
  %20 = getelementptr inbounds nuw %struct.jpeg_decompress_struct, ptr %19, i32 0, i32 0
  %21 = load ptr, ptr %20, align 8, !tbaa !56
  %22 = getelementptr inbounds nuw %struct.jpeg_error_mgr, ptr %21, i32 0, i32 5
  store i32 24, ptr %22, align 8, !tbaa !57
  %23 = load ptr, ptr %2, align 8, !tbaa !3
  %24 = getelementptr inbounds nuw %struct.jpeg_decompress_struct, ptr %23, i32 0, i32 0
  %25 = load ptr, ptr %24, align 8, !tbaa !56
  %26 = getelementptr inbounds nuw %struct.jpeg_error_mgr, ptr %25, i32 0, i32 0
  %27 = load ptr, ptr %26, align 8, !tbaa !59
  %28 = load ptr, ptr %2, align 8, !tbaa !3
  call void %27(ptr noundef %28)
  br label %29

29:                                               ; preds = %18, %11
  br label %30

30:                                               ; preds = %29, %1
  %31 = load ptr, ptr %3, align 8, !tbaa !109
  %32 = getelementptr inbounds nuw %struct.jpeg_source_mgr, ptr %31, i32 0, i32 1
  %33 = load i64, ptr %32, align 8, !tbaa !110
  %34 = add i64 %33, -1
  store i64 %34, ptr %32, align 8, !tbaa !110
  %35 = load ptr, ptr %3, align 8, !tbaa !109
  %36 = getelementptr inbounds nuw %struct.jpeg_source_mgr, ptr %35, i32 0, i32 0
  %37 = load ptr, ptr %36, align 8, !tbaa !113
  %38 = getelementptr inbounds nuw i8, ptr %37, i32 1
  store ptr %38, ptr %36, align 8, !tbaa !113
  %39 = load i8, ptr %37, align 1, !tbaa !44
  %40 = zext i8 %39 to i32
  call void @llvm.lifetime.end.p0(i64 8, ptr %3) #3
  ret i32 %40
}

; Function Attrs: nounwind uwtable
define internal i32 @arith_decode(ptr noundef %0, ptr noundef %1) #0 {
  %3 = alloca ptr, align 8
  %4 = alloca ptr, align 8
  %5 = alloca ptr, align 8
  %6 = alloca i8, align 1
  %7 = alloca i8, align 1
  %8 = alloca i64, align 8
  %9 = alloca i64, align 8
  %10 = alloca i32, align 4
  %11 = alloca i32, align 4
  store ptr %0, ptr %3, align 8, !tbaa !3
  store ptr %1, ptr %4, align 8, !tbaa !41
  call void @llvm.lifetime.start.p0(i64 8, ptr %5) #3
  %12 = load ptr, ptr %3, align 8, !tbaa !3
  %13 = getelementptr inbounds nuw %struct.jpeg_decompress_struct, ptr %12, i32 0, i32 83
  %14 = load ptr, ptr %13, align 8, !tbaa !36
  store ptr %14, ptr %5, align 8, !tbaa !35
  call void @llvm.lifetime.start.p0(i64 1, ptr %6) #3
  call void @llvm.lifetime.start.p0(i64 1, ptr %7) #3
  call void @llvm.lifetime.start.p0(i64 8, ptr %8) #3
  call void @llvm.lifetime.start.p0(i64 8, ptr %9) #3
  call void @llvm.lifetime.start.p0(i64 4, ptr %10) #3
  call void @llvm.lifetime.start.p0(i64 4, ptr %11) #3
  br label %15

15:                                               ; preds = %80, %2
  %16 = load ptr, ptr %5, align 8, !tbaa !35
  %17 = getelementptr inbounds nuw %struct.arith_entropy_decoder, ptr %16, i32 0, i32 2
  %18 = load i64, ptr %17, align 8, !tbaa !72
  %19 = icmp slt i64 %18, 32768
  br i1 %19, label %20, label %85

20:                                               ; preds = %15
  %21 = load ptr, ptr %5, align 8, !tbaa !35
  %22 = getelementptr inbounds nuw %struct.arith_entropy_decoder, ptr %21, i32 0, i32 3
  %23 = load i32, ptr %22, align 8, !tbaa !73
  %24 = add nsw i32 %23, -1
  store i32 %24, ptr %22, align 8, !tbaa !73
  %25 = icmp slt i32 %24, 0
  br i1 %25, label %26, label %80

26:                                               ; preds = %20
  %27 = load ptr, ptr %3, align 8, !tbaa !3
  %28 = getelementptr inbounds nuw %struct.jpeg_decompress_struct, ptr %27, i32 0, i32 76
  %29 = load i32, ptr %28, align 4, !tbaa !104
  %30 = icmp ne i32 %29, 0
  br i1 %30, label %31, label %32

31:                                               ; preds = %26
  store i32 0, ptr %11, align 4, !tbaa !40
  br label %54

32:                                               ; preds = %26
  %33 = load ptr, ptr %3, align 8, !tbaa !3
  %34 = call i32 @get_byte(ptr noundef %33)
  store i32 %34, ptr %11, align 4, !tbaa !40
  %35 = load i32, ptr %11, align 4, !tbaa !40
  %36 = icmp eq i32 %35, 255
  br i1 %36, label %37, label %53

37:                                               ; preds = %32
  br label %38

38:                                               ; preds = %41, %37
  %39 = load ptr, ptr %3, align 8, !tbaa !3
  %40 = call i32 @get_byte(ptr noundef %39)
  store i32 %40, ptr %11, align 4, !tbaa !40
  br label %41

41:                                               ; preds = %38
  %42 = load i32, ptr %11, align 4, !tbaa !40
  %43 = icmp eq i32 %42, 255
  br i1 %43, label %38, label %44, !llvm.loop !105

44:                                               ; preds = %41
  %45 = load i32, ptr %11, align 4, !tbaa !40
  %46 = icmp eq i32 %45, 0
  br i1 %46, label %47, label %48

47:                                               ; preds = %44
  store i32 255, ptr %11, align 4, !tbaa !40
  br label %52

48:                                               ; preds = %44
  %49 = load i32, ptr %11, align 4, !tbaa !40
  %50 = load ptr, ptr %3, align 8, !tbaa !3
  %51 = getelementptr inbounds nuw %struct.jpeg_decompress_struct, ptr %50, i32 0, i32 76
  store i32 %49, ptr %51, align 4, !tbaa !104
  store i32 0, ptr %11, align 4, !tbaa !40
  br label %52

52:                                               ; preds = %48, %47
  br label %53

53:                                               ; preds = %52, %32
  br label %54

54:                                               ; preds = %53, %31
  %55 = load ptr, ptr %5, align 8, !tbaa !35
  %56 = getelementptr inbounds nuw %struct.arith_entropy_decoder, ptr %55, i32 0, i32 1
  %57 = load i64, ptr %56, align 8, !tbaa !71
  %58 = shl i64 %57, 8
  %59 = load i32, ptr %11, align 4, !tbaa !40
  %60 = sext i32 %59 to i64
  %61 = or i64 %58, %60
  %62 = load ptr, ptr %5, align 8, !tbaa !35
  %63 = getelementptr inbounds nuw %struct.arith_entropy_decoder, ptr %62, i32 0, i32 1
  store i64 %61, ptr %63, align 8, !tbaa !71
  %64 = load ptr, ptr %5, align 8, !tbaa !35
  %65 = getelementptr inbounds nuw %struct.arith_entropy_decoder, ptr %64, i32 0, i32 3
  %66 = load i32, ptr %65, align 8, !tbaa !73
  %67 = add nsw i32 %66, 8
  store i32 %67, ptr %65, align 8, !tbaa !73
  %68 = icmp slt i32 %67, 0
  br i1 %68, label %69, label %79

69:                                               ; preds = %54
  %70 = load ptr, ptr %5, align 8, !tbaa !35
  %71 = getelementptr inbounds nuw %struct.arith_entropy_decoder, ptr %70, i32 0, i32 3
  %72 = load i32, ptr %71, align 8, !tbaa !73
  %73 = add nsw i32 %72, 1
  store i32 %73, ptr %71, align 8, !tbaa !73
  %74 = icmp eq i32 %73, 0
  br i1 %74, label %75, label %78

75:                                               ; preds = %69
  %76 = load ptr, ptr %5, align 8, !tbaa !35
  %77 = getelementptr inbounds nuw %struct.arith_entropy_decoder, ptr %76, i32 0, i32 2
  store i64 32768, ptr %77, align 8, !tbaa !72
  br label %78

78:                                               ; preds = %75, %69
  br label %79

79:                                               ; preds = %78, %54
  br label %80

80:                                               ; preds = %79, %20
  %81 = load ptr, ptr %5, align 8, !tbaa !35
  %82 = getelementptr inbounds nuw %struct.arith_entropy_decoder, ptr %81, i32 0, i32 2
  %83 = load i64, ptr %82, align 8, !tbaa !72
  %84 = shl i64 %83, 1
  store i64 %84, ptr %82, align 8, !tbaa !72
  br label %15, !llvm.loop !106

85:                                               ; preds = %15
  %86 = load ptr, ptr %4, align 8, !tbaa !41
  %87 = load i8, ptr %86, align 1, !tbaa !44
  %88 = zext i8 %87 to i32
  store i32 %88, ptr %10, align 4, !tbaa !40
  %89 = load i32, ptr %10, align 4, !tbaa !40
  %90 = and i32 %89, 127
  %91 = sext i32 %90 to i64
  %92 = getelementptr inbounds [0 x i64], ptr @jpeg_aritab, i64 0, i64 %91
  %93 = load i64, ptr %92, align 8, !tbaa !107
  store i64 %93, ptr %8, align 8, !tbaa !107
  %94 = load i64, ptr %8, align 8, !tbaa !107
  %95 = and i64 %94, 255
  %96 = trunc i64 %95 to i8
  store i8 %96, ptr %6, align 1, !tbaa !44
  %97 = load i64, ptr %8, align 8, !tbaa !107
  %98 = ashr i64 %97, 8
  store i64 %98, ptr %8, align 8, !tbaa !107
  %99 = load i64, ptr %8, align 8, !tbaa !107
  %100 = and i64 %99, 255
  %101 = trunc i64 %100 to i8
  store i8 %101, ptr %7, align 1, !tbaa !44
  %102 = load i64, ptr %8, align 8, !tbaa !107
  %103 = ashr i64 %102, 8
  store i64 %103, ptr %8, align 8, !tbaa !107
  %104 = load ptr, ptr %5, align 8, !tbaa !35
  %105 = getelementptr inbounds nuw %struct.arith_entropy_decoder, ptr %104, i32 0, i32 2
  %106 = load i64, ptr %105, align 8, !tbaa !72
  %107 = load i64, ptr %8, align 8, !tbaa !107
  %108 = sub nsw i64 %106, %107
  store i64 %108, ptr %9, align 8, !tbaa !107
  %109 = load i64, ptr %9, align 8, !tbaa !107
  %110 = load ptr, ptr %5, align 8, !tbaa !35
  %111 = getelementptr inbounds nuw %struct.arith_entropy_decoder, ptr %110, i32 0, i32 2
  store i64 %109, ptr %111, align 8, !tbaa !72
  %112 = load ptr, ptr %5, align 8, !tbaa !35
  %113 = getelementptr inbounds nuw %struct.arith_entropy_decoder, ptr %112, i32 0, i32 3
  %114 = load i32, ptr %113, align 8, !tbaa !73
  %115 = load i64, ptr %9, align 8, !tbaa !107
  %116 = zext i32 %114 to i64
  %117 = shl i64 %115, %116
  store i64 %117, ptr %9, align 8, !tbaa !107
  %118 = load ptr, ptr %5, align 8, !tbaa !35
  %119 = getelementptr inbounds nuw %struct.arith_entropy_decoder, ptr %118, i32 0, i32 1
  %120 = load i64, ptr %119, align 8, !tbaa !71
  %121 = load i64, ptr %9, align 8, !tbaa !107
  %122 = icmp sge i64 %120, %121
  br i1 %122, label %123, label %159

123:                                              ; preds = %85
  %124 = load i64, ptr %9, align 8, !tbaa !107
  %125 = load ptr, ptr %5, align 8, !tbaa !35
  %126 = getelementptr inbounds nuw %struct.arith_entropy_decoder, ptr %125, i32 0, i32 1
  %127 = load i64, ptr %126, align 8, !tbaa !71
  %128 = sub nsw i64 %127, %124
  store i64 %128, ptr %126, align 8, !tbaa !71
  %129 = load ptr, ptr %5, align 8, !tbaa !35
  %130 = getelementptr inbounds nuw %struct.arith_entropy_decoder, ptr %129, i32 0, i32 2
  %131 = load i64, ptr %130, align 8, !tbaa !72
  %132 = load i64, ptr %8, align 8, !tbaa !107
  %133 = icmp slt i64 %131, %132
  br i1 %133, label %134, label %145

134:                                              ; preds = %123
  %135 = load i64, ptr %8, align 8, !tbaa !107
  %136 = load ptr, ptr %5, align 8, !tbaa !35
  %137 = getelementptr inbounds nuw %struct.arith_entropy_decoder, ptr %136, i32 0, i32 2
  store i64 %135, ptr %137, align 8, !tbaa !72
  %138 = load i32, ptr %10, align 4, !tbaa !40
  %139 = and i32 %138, 128
  %140 = load i8, ptr %7, align 1, !tbaa !44
  %141 = zext i8 %140 to i32
  %142 = xor i32 %139, %141
  %143 = trunc i32 %142 to i8
  %144 = load ptr, ptr %4, align 8, !tbaa !41
  store i8 %143, ptr %144, align 1, !tbaa !44
  br label %158

145:                                              ; preds = %123
  %146 = load i64, ptr %8, align 8, !tbaa !107
  %147 = load ptr, ptr %5, align 8, !tbaa !35
  %148 = getelementptr inbounds nuw %struct.arith_entropy_decoder, ptr %147, i32 0, i32 2
  store i64 %146, ptr %148, align 8, !tbaa !72
  %149 = load i32, ptr %10, align 4, !tbaa !40
  %150 = and i32 %149, 128
  %151 = load i8, ptr %6, align 1, !tbaa !44
  %152 = zext i8 %151 to i32
  %153 = xor i32 %150, %152
  %154 = trunc i32 %153 to i8
  %155 = load ptr, ptr %4, align 8, !tbaa !41
  store i8 %154, ptr %155, align 1, !tbaa !44
  %156 = load i32, ptr %10, align 4, !tbaa !40
  %157 = xor i32 %156, 128
  store i32 %157, ptr %10, align 4, !tbaa !40
  br label %158

158:                                              ; preds = %145, %134
  br label %190

159:                                              ; preds = %85
  %160 = load ptr, ptr %5, align 8, !tbaa !35
  %161 = getelementptr inbounds nuw %struct.arith_entropy_decoder, ptr %160, i32 0, i32 2
  %162 = load i64, ptr %161, align 8, !tbaa !72
  %163 = icmp slt i64 %162, 32768
  br i1 %163, label %164, label %189

164:                                              ; preds = %159
  %165 = load ptr, ptr %5, align 8, !tbaa !35
  %166 = getelementptr inbounds nuw %struct.arith_entropy_decoder, ptr %165, i32 0, i32 2
  %167 = load i64, ptr %166, align 8, !tbaa !72
  %168 = load i64, ptr %8, align 8, !tbaa !107
  %169 = icmp slt i64 %167, %168
  br i1 %169, label %170, label %180

170:                                              ; preds = %164
  %171 = load i32, ptr %10, align 4, !tbaa !40
  %172 = and i32 %171, 128
  %173 = load i8, ptr %6, align 1, !tbaa !44
  %174 = zext i8 %173 to i32
  %175 = xor i32 %172, %174
  %176 = trunc i32 %175 to i8
  %177 = load ptr, ptr %4, align 8, !tbaa !41
  store i8 %176, ptr %177, align 1, !tbaa !44
  %178 = load i32, ptr %10, align 4, !tbaa !40
  %179 = xor i32 %178, 128
  store i32 %179, ptr %10, align 4, !tbaa !40
  br label %188

180:                                              ; preds = %164
  %181 = load i32, ptr %10, align 4, !tbaa !40
  %182 = and i32 %181, 128
  %183 = load i8, ptr %7, align 1, !tbaa !44
  %184 = zext i8 %183 to i32
  %185 = xor i32 %182, %184
  %186 = trunc i32 %185 to i8
  %187 = load ptr, ptr %4, align 8, !tbaa !41
  store i8 %186, ptr %187, align 1, !tbaa !44
  br label %188

188:                                              ; preds = %180, %170
  br label %189

189:                                              ; preds = %188, %159
  br label %190

190:                                              ; preds = %189, %158
  %191 = load i32, ptr %10, align 4, !tbaa !40
  %192 = ashr i32 %191, 7
  call void @llvm.lifetime.end.p0(i64 4, ptr %11) #3
  call void @llvm.lifetime.end.p0(i64 4, ptr %10) #3
  call void @llvm.lifetime.end.p0(i64 8, ptr %9) #3
  call void @llvm.lifetime.end.p0(i64 8, ptr %8) #3
  call void @llvm.lifetime.end.p0(i64 1, ptr %7) #3
  call void @llvm.lifetime.end.p0(i64 1, ptr %6) #3
  call void @llvm.lifetime.end.p0(i64 8, ptr %5) #3
  ret i32 %192
}