; Function Attrs: nounwind uwtable
define internal fastcc range(i32 0, 2) i32 @arith_decode(ptr noundef %0, ptr noundef captures(none) %1) unnamed_addr #0 {
  %3 = getelementptr inbounds nuw i8, ptr %0, i64 592
  %4 = load ptr, ptr %3, align 8, !tbaa !33
  %5 = getelementptr inbounds nuw i8, ptr %4, i64 48
  %6 = load i64, ptr %5, align 8, !tbaa !95
  %7 = icmp slt i64 %6, 32768
  %8 = getelementptr inbounds nuw i8, ptr %4, i64 56
  br i1 %7, label %.lr.ph, label %.._crit_edge_crit_edge

.._crit_edge_crit_edge:                           ; preds = %2
  %.pre75 = load i32, ptr %8, align 8, !tbaa !66
  br label %._crit_edge

.lr.ph:                                           ; preds = %2
  %9 = getelementptr inbounds nuw i8, ptr %0, i64 540
  %10 = getelementptr inbounds nuw i8, ptr %0, i64 40
  %11 = getelementptr inbounds nuw i8, ptr %4, i64 40
  %.pre = load i32, ptr %8, align 8, !tbaa !66
  br label %12

12:                                               ; preds = %.lr.ph, %67
  %13 = phi i32 [ %.pre, %.lr.ph ], [ %68, %67 ]
  %14 = add nsw i32 %13, -1
  store i32 %14, ptr %8, align 8, !tbaa !66
  %15 = icmp slt i32 %13, 1
  br i1 %15, label %16, label %67

16:                                               ; preds = %12
  %17 = load i32, ptr %9, align 4, !tbaa !96
  %.not66 = icmp eq i32 %17, 0
  br i1 %.not66, label %18, label %.loopexit

18:                                               ; preds = %16
  %19 = load ptr, ptr %10, align 8, !tbaa !97
  %20 = getelementptr inbounds nuw i8, ptr %19, i64 8
  %21 = load i64, ptr %20, align 8, !tbaa !98
  %22 = icmp eq i64 %21, 0
  br i1 %22, label %23, label %get_byte.exit

23:                                               ; preds = %18
  %24 = getelementptr inbounds nuw i8, ptr %19, i64 24
  %25 = load ptr, ptr %24, align 8, !tbaa !100
  %26 = tail call i32 %25(ptr noundef nonnull %0) #3
  %.not.i = icmp eq i32 %26, 0
  br i1 %.not.i, label %27, label %get_byte.exit

27:                                               ; preds = %23
  %28 = load ptr, ptr %0, align 8, !tbaa !49
  %29 = getelementptr inbounds nuw i8, ptr %28, i64 40
  store i32 24, ptr %29, align 8, !tbaa !50
  %30 = load ptr, ptr %28, align 8, !tbaa !52
  tail call void %30(ptr noundef nonnull %0) #3
  br label %get_byte.exit

get_byte.exit:                                    ; preds = %18, %23, %27
  %31 = load i64, ptr %20, align 8, !tbaa !98
  %32 = add i64 %31, -1
  store i64 %32, ptr %20, align 8, !tbaa !98
  %33 = load ptr, ptr %19, align 8, !tbaa !101
  %34 = getelementptr inbounds nuw i8, ptr %33, i64 1
  store ptr %34, ptr %19, align 8, !tbaa !101
  %35 = load i8, ptr %33, align 1, !tbaa !37
  %36 = zext i8 %35 to i64
  %37 = icmp eq i8 %35, -1
  br i1 %37, label %.preheader, label %.loopexitthread-pre-split

.preheader:                                       ; preds = %get_byte.exit, %get_byte.exit68
  %38 = load ptr, ptr %10, align 8, !tbaa !97
  %39 = getelementptr inbounds nuw i8, ptr %38, i64 8
  %40 = load i64, ptr %39, align 8, !tbaa !98
  %41 = icmp eq i64 %40, 0
  br i1 %41, label %42, label %get_byte.exit68

42:                                               ; preds = %.preheader
  %43 = getelementptr inbounds nuw i8, ptr %38, i64 24
  %44 = load ptr, ptr %43, align 8, !tbaa !100
  %45 = tail call i32 %44(ptr noundef nonnull %0) #3
  %.not.i67 = icmp eq i32 %45, 0
  br i1 %.not.i67, label %46, label %get_byte.exit68

46:                                               ; preds = %42
  %47 = load ptr, ptr %0, align 8, !tbaa !49
  %48 = getelementptr inbounds nuw i8, ptr %47, i64 40
  store i32 24, ptr %48, align 8, !tbaa !50
  %49 = load ptr, ptr %47, align 8, !tbaa !52
  tail call void %49(ptr noundef nonnull %0) #3
  br label %get_byte.exit68

get_byte.exit68:                                  ; preds = %.preheader, %42, %46
  %50 = load i64, ptr %39, align 8, !tbaa !98
  %51 = add i64 %50, -1
  store i64 %51, ptr %39, align 8, !tbaa !98
  %52 = load ptr, ptr %38, align 8, !tbaa !101
  %53 = getelementptr inbounds nuw i8, ptr %52, i64 1
  store ptr %53, ptr %38, align 8, !tbaa !101
  %54 = load i8, ptr %52, align 1, !tbaa !37
  switch i8 %54, label %55 [
    i8 -1, label %.preheader
    i8 0, label %.loopexitthread-pre-split
  ]

55:                                               ; preds = %get_byte.exit68
  %56 = zext i8 %54 to i32
  store i32 %56, ptr %9, align 4, !tbaa !96
  br label %.loopexitthread-pre-split

.loopexitthread-pre-split:                        ; preds = %get_byte.exit68, %55, %get_byte.exit
  %.0.ph = phi i64 [ %36, %get_byte.exit ], [ 0, %55 ], [ 255, %get_byte.exit68 ]
  %.pr = load i32, ptr %8, align 8, !tbaa !66
  br label %.loopexit

.loopexit:                                        ; preds = %.loopexitthread-pre-split, %16
  %57 = phi i32 [ %.pr, %.loopexitthread-pre-split ], [ %14, %16 ]
  %.0 = phi i64 [ %.0.ph, %.loopexitthread-pre-split ], [ 0, %16 ]
  %58 = load i64, ptr %11, align 8, !tbaa !102
  %59 = shl i64 %58, 8
  %60 = or disjoint i64 %59, %.0
  store i64 %60, ptr %11, align 8, !tbaa !102
  %61 = add nsw i32 %57, 8
  store i32 %61, ptr %8, align 8, !tbaa !66
  %62 = icmp slt i32 %57, -8
  br i1 %62, label %63, label %67

63:                                               ; preds = %.loopexit
  %64 = add nsw i32 %57, 9
  store i32 %64, ptr %8, align 8, !tbaa !66
  %65 = icmp eq i32 %64, 0
  br i1 %65, label %66, label %67

66:                                               ; preds = %63
  store i64 32768, ptr %5, align 8, !tbaa !95
  br label %67

67:                                               ; preds = %.loopexit, %66, %63, %12
  %68 = phi i32 [ %61, %.loopexit ], [ 0, %66 ], [ %64, %63 ], [ %14, %12 ]
  %69 = load i64, ptr %5, align 8, !tbaa !95
  %70 = shl i64 %69, 1
  store i64 %70, ptr %5, align 8, !tbaa !95
  %71 = icmp slt i64 %70, 32768
  br i1 %71, label %12, label %._crit_edge, !llvm.loop !103

._crit_edge:                                      ; preds = %67, %.._crit_edge_crit_edge
  %72 = phi i32 [ %.pre75, %.._crit_edge_crit_edge ], [ %68, %67 ]
  %.lcssa70 = phi i64 [ %6, %.._crit_edge_crit_edge ], [ %70, %67 ]
  %73 = load i8, ptr %1, align 1, !tbaa !37
  %74 = zext i8 %73 to i32
  %75 = and i32 %74, 127
  %76 = zext nneg i32 %75 to i64
  %77 = getelementptr inbounds nuw [0 x i64], ptr @jpeg_aritab, i64 0, i64 %76
  %78 = load i64, ptr %77, align 8, !tbaa !104
  %79 = trunc i64 %78 to i8
  %80 = lshr i64 %78, 8
  %81 = trunc i64 %80 to i8
  %82 = ashr i64 %78, 16
  %83 = sub nsw i64 %.lcssa70, %82
  store i64 %83, ptr %5, align 8, !tbaa !95
  %84 = zext nneg i32 %72 to i64
  %85 = shl i64 %83, %84
  %86 = getelementptr inbounds nuw i8, ptr %4, i64 40
  %87 = load i64, ptr %86, align 8, !tbaa !102
  %.not = icmp slt i64 %87, %85
  br i1 %.not, label %97, label %88

88:                                               ; preds = %._crit_edge
  %89 = sub nsw i64 %87, %85
  store i64 %89, ptr %86, align 8, !tbaa !102
  %90 = icmp slt i64 %83, %82
  store i64 %82, ptr %5, align 8, !tbaa !95
  %91 = and i8 %73, -128
  br i1 %90, label %92, label %94

92:                                               ; preds = %88
  %93 = xor i8 %91, %81
  store i8 %93, ptr %1, align 1, !tbaa !37
  br label %107

94:                                               ; preds = %88
  %95 = xor i8 %91, %79
  store i8 %95, ptr %1, align 1, !tbaa !37
  %96 = xor i32 %74, 128
  br label %107

97:                                               ; preds = %._crit_edge
  %98 = icmp slt i64 %83, 32768
  br i1 %98, label %99, label %107

99:                                               ; preds = %97
  %100 = icmp slt i64 %83, %82
  %101 = and i8 %73, -128
  br i1 %100, label %102, label %105

102:                                              ; preds = %99
  %103 = xor i8 %101, %79
  store i8 %103, ptr %1, align 1, !tbaa !37
  %104 = xor i32 %74, 128
  br label %107

105:                                              ; preds = %99
  %106 = xor i8 %101, %81
  store i8 %106, ptr %1, align 1, !tbaa !37
  br label %107

107:                                              ; preds = %97, %105, %102, %92, %94
  %.057 = phi i32 [ %74, %92 ], [ %96, %94 ], [ %104, %102 ], [ %74, %105 ], [ %74, %97 ]
  %108 = lshr i32 %.057, 7
  ret i32 %108
}